; Function Attrs: mustprogress uwtable
define hidden void @_ZNK2cv17MatOp_Initializer6assignERKNS_7MatExprERNS_3MatEi(ptr nocapture nonnull readnone align 8 %0, ptr nocapture noundef nonnull readonly align 8 dereferenceable(352) %1, ptr noundef nonnull align 8 dereferenceable(96) %2, i32 noundef %3) unnamed_addr #8 align 2 personality ptr @__gxx_personality_v0 {
  %5 = alloca %"class.cv::_InputOutputArray", align 8
  %6 = alloca %"class.cv::Scalar_", align 8
  %7 = alloca %"class.cv::Scalar_", align 8
  %8 = alloca %"class.cv::Scalar_", align 8
  %9 = alloca %"class.std::__cxx11::basic_string", align 8
  %10 = alloca %"class.std::allocator", align 1
  %11 = icmp eq i32 %3, -1
  %12 = getelementptr inbounds i8, ptr %1, i64 16
  %13 = load i32, ptr %12, align 8
  %14 = and i32 %13, 4095
  %.022 = select i1 %11, i32 %14, i32 %3
  %15 = getelementptr inbounds i8, ptr %1, i64 20
  %16 = load i32, ptr %15, align 4
  %17 = icmp slt i32 %16, 3
  %18 = getelementptr inbounds i8, ptr %1, i64 80
  %19 = load ptr, ptr %18, align 8
  br i1 %17, label %20, label %24

20:                                               ; preds = %4
  %21 = getelementptr inbounds i8, ptr %19, i64 4
  %22 = load i32, ptr %21, align 4
  %23 = load i32, ptr %19, align 4
  %.sroa.2.0.insert.ext.i = zext i32 %23 to i64
  %.sroa.2.0.insert.shift.i = shl nuw i64 %.sroa.2.0.insert.ext.i, 32
  %.sroa.0.0.insert.ext.i = zext i32 %22 to i64
  %.sroa.0.0.insert.insert.i = or disjoint i64 %.sroa.2.0.insert.shift.i, %.sroa.0.0.insert.ext.i
  tail call void @_ZN2cv3Mat6createENS_5Size_IiEEi(ptr noundef nonnull align 8 dereferenceable(96) %2, i64 %.sroa.0.0.insert.insert.i, i32 noundef %.022)
  br label %25

24:                                               ; preds = %4
  tail call void @_ZN2cv3Mat6createEiPKii(ptr noundef nonnull align 8 dereferenceable(96) %2, i32 noundef %16, ptr noundef %19, i32 noundef %.022)
  br label %25

25:                                               ; preds = %24, %20
  %26 = getelementptr inbounds i8, ptr %1, i64 8
  %27 = load i32, ptr %26, align 8
  %28 = icmp eq i32 %27, 73
  %29 = load i32, ptr %15, align 4
  %30 = icmp slt i32 %29, 3
  %or.cond = select i1 %28, i1 %30, i1 false
  br i1 %or.cond, label %31, label %37

31:                                               ; preds = %25
  %32 = getelementptr inbounds i8, ptr %5, i64 8
  %33 = getelementptr inbounds i8, ptr %5, i64 16
  store i64 0, ptr %33, align 8
  store i32 50397184, ptr %5, align 8
  store ptr %2, ptr %32, align 8
  %34 = getelementptr inbounds i8, ptr %1, i64 304
  %35 = load double, ptr %34, align 8
  store double %35, ptr %6, align 8
  %36 = getelementptr inbounds i8, ptr %6, i64 8
  call void @llvm.memset.p0.i64(ptr noundef nonnull align 8 dereferenceable(24) %36, i8 0, i64 24, i1 false)
  call void @_ZN2cv11setIdentityERKNS_17_InputOutputArrayERKNS_7Scalar_IdEE(ptr noundef nonnull align 8 dereferenceable(24) %5, ptr noundef nonnull align 8 dereferenceable(32) %6)
  br label %53

37:                                               ; preds = %25
  switch i32 %27, label %45 [
    i32 48, label %38
    i32 49, label %40
  ]

38:                                               ; preds = %37
  call void @llvm.memset.p0.i64(ptr noundef nonnull align 8 dereferenceable(32) %7, i8 0, i64 32, i1 false)
  %39 = call noundef nonnull align 8 dereferenceable(96) ptr @_ZN2cv3MataSERKNS_7Scalar_IdEE(ptr noundef nonnull align 8 dereferenceable(96) %2, ptr noundef nonnull align 8 dereferenceable(32) %7)
  br label %53

40:                                               ; preds = %37
  %41 = getelementptr inbounds i8, ptr %1, i64 304
  %42 = load double, ptr %41, align 8
  store double %42, ptr %8, align 8
  %43 = getelementptr inbounds i8, ptr %8, i64 8
  call void @llvm.memset.p0.i64(ptr noundef nonnull align 8 dereferenceable(24) %43, i8 0, i64 24, i1 false)
  %44 = call noundef nonnull align 8 dereferenceable(96) ptr @_ZN2cv3MataSERKNS_7Scalar_IdEE(ptr noundef nonnull align 8 dereferenceable(96) %2, ptr noundef nonnull align 8 dereferenceable(32) %8)
  br label %53

45:                                               ; preds = %37
  call void @_ZNSaIcEC1Ev(ptr noundef nonnull align 1 dereferenceable(1) %10) #21
  invoke void @_ZNSt7__cxx1112basic_stringIcSt11char_traitsIcESaIcEEC1EPKcRKS3_(ptr noundef nonnull align 8 dereferenceable(32) %9, ptr noundef nonnull @.str.46, ptr noundef nonnull align 1 dereferenceable(1) %10)
          to label %46 unwind label %48

46:                                               ; preds = %45
  invoke void @_ZN2cv5errorEiRKNSt7__cxx1112basic_stringIcSt11char_traitsIcESaIcEEEPKcS9_i(i32 noundef -2, ptr noundef nonnull align 8 dereferenceable(32) %9, ptr noundef nonnull @__func__._ZNK2cv14MatOp_Identity6assignERKNS_7MatExprERNS_3MatEi, ptr noundef nonnull @.str.9, i32 noundef 1694) #22
          to label %47 unwind label %50

47:                                               ; preds = %46
  unreachable

48:                                               ; preds = %45
  %49 = landingpad { ptr, i32 }
          cleanup
  br label %52

50:                                               ; preds = %46
  %51 = landingpad { ptr, i32 }
          cleanup
  call void @_ZNSt7__cxx1112basic_stringIcSt11char_traitsIcESaIcEED1Ev(ptr noundef nonnull align 8 dereferenceable(32) %9) #21
  br label %52

52:                                               ; preds = %50, %48
  %.pn = phi { ptr, i32 } [ %51, %50 ], [ %49, %48 ]
  call void @_ZNSaIcED1Ev(ptr noundef nonnull align 1 dereferenceable(1) %10) #21
  resume { ptr, i32 } %.pn

53:                                               ; preds = %31, %38, %40
  ret void
}